; Function Attrs: mustprogress uwtable
define internal void @"_ZNSt17_Function_handlerIFN7rocksdb6StatusERKNS0_13ConfigOptionsERKNSt7__cxx1112basic_stringIcSt11char_traitsIcESaIcEEEPKvPSA_ENS0_12_GLOBAL__N_13$_3EE9_M_invokeERKSt9_Any_dataS4_SC_OSE_OSF_"(ptr dead_on_unwind noalias writable writeonly sret(%"class.rocksdb::Status") align 8 captures(none) initializes((0, 6), (8, 16)) %0, ptr nonnull readnone align 8 captures(none) %1, ptr nonnull readnone align 8 captures(none) %2, ptr nonnull readnone align 8 captures(none) %3, ptr noundef nonnull readonly align 8 captures(none) dereferenceable(8) %4, ptr noundef nonnull readonly align 8 captures(none) dereferenceable(8) %5) #1 align 2 personality ptr @__gxx_personality_v0 {
  %.val = load ptr, ptr %4, align 8, !tbaa !590
  %.val5 = load ptr, ptr %5, align 8, !tbaa !175
  %7 = getelementptr i8, ptr %.val, i64 73
  %.val.val = load i8, ptr %7, align 1, !tbaa !75, !range !78, !noundef !79
  tail call void @llvm.experimental.noalias.scope.decl(metadata !741)
  tail call void @llvm.experimental.noalias.scope.decl(metadata !744)
  tail call void @llvm.experimental.noalias.scope.decl(metadata !747)
  %8 = trunc nuw i8 %.val.val to i1
  %9 = select i1 %8, ptr @.str.34, ptr @.str.35
  %10 = getelementptr inbounds nuw i8, ptr %.val5, i64 8
  %11 = load i64, ptr %10, align 8, !tbaa !31, !noalias !750
  %12 = select i1 %8, i64 4, i64 5
  %13 = tail call noundef nonnull align 8 dereferenceable(32) ptr @_ZNSt7__cxx1112basic_stringIcSt11char_traitsIcESaIcEE10_M_replaceEmmPKcm(ptr noundef nonnull align 8 dereferenceable(32) %.val5, i64 noundef 0, i64 noundef %11, ptr noundef nonnull %9, i64 noundef %12), !noalias !750
  %14 = getelementptr inbounds nuw i8, ptr %0, i64 8
  store ptr null, ptr %14, align 8, !tbaa !143, !alias.scope !751
  tail call void @llvm.memset.p0.i64(ptr noundef nonnull align 8 dereferenceable(16) %0, i8 0, i64 6, i1 false), !alias.scope !751
  ret void
}